target datalayout = "e-m:e-p270:32:32-p271:32:32-p272:64:64-i64:64-i128:128-f80:128-n8:16:32:64-S128"
target triple = "x86_64-unknown-linux-gnu"

%"struct.__gnu_cxx::__ops::_Iter_pred" = type { %class.anon }
%class.anon = type { i8 }
%"struct.__gnu_cxx::__ops::_Iter_negate" = type { %class.anon }

; Function Attrs: mustprogress nounwind uwtable
define internal noundef zeroext i1 @"_ZZN4node9inspector12_GLOBAL__N_111IsIPAddressERKNSt7__cxx1112basic_stringIcSt11char_traitsIcESaIcEEEENK3$_0clIhEEDaT_"(ptr noundef nonnull align 1 dereferenceable(1) %this, i8 noundef zeroext %b) #0 align 2 {
entry:
  %this.addr = alloca ptr, align 8
  %b.addr = alloca i8, align 1
  store ptr %this, ptr %this.addr, align 8
  store i8 %b, ptr %b.addr, align 1
  %0 = load i8, ptr %b.addr, align 1
  %conv = zext i8 %0 to i32
  %cmp = icmp eq i32 %conv, 0
  ret i1 %cmp
}

; Function Attrs: mustprogress nounwind uwtable
define internal noundef zeroext i1 @"_ZN9__gnu_cxx5__ops12_Iter_negateIZN4node9inspector12_GLOBAL__N_111IsIPAddressERKNSt7__cxx1112basic_stringIcSt11char_traitsIcESaIcEEEE3$_0EclIPhEEbT_"(ptr noundef nonnull align 1 dereferenceable(1) %this, ptr noundef %__it) #0 align 2 {
entry:
  %this.addr = alloca ptr, align 8
  %__it.addr = alloca ptr, align 8
  store ptr %this, ptr %this.addr, align 8
  store ptr %__it, ptr %__it.addr, align 8
  %this1 = load ptr, ptr %this.addr, align 8
  %_M_pred = getelementptr inbounds %"struct.__gnu_cxx::__ops::_Iter_negate", ptr %this1, i32 0, i32 0
  %0 = load ptr, ptr %__it.addr, align 8
  %1 = load i8, ptr %0, align 1
  %call = call noundef zeroext i1 @"_ZZN4node9inspector12_GLOBAL__N_111IsIPAddressERKNSt7__cxx1112basic_stringIcSt11char_traitsIcESaIcEEEENK3$_0clIhEEDaT_"(ptr noundef nonnull align 1 dereferenceable(1) %_M_pred, i8 noundef zeroext %1)
  %lnot = xor i1 %call, true
  ret i1 %lnot
}

; Function Attrs: mustprogress nounwind uwtable
define internal void @"_ZN9__gnu_cxx5__ops12_Iter_negateIZN4node9inspector12_GLOBAL__N_111IsIPAddressERKNSt7__cxx1112basic_stringIcSt11char_traitsIcESaIcEEEE3$_0EC2ESD_"(ptr noundef nonnull align 1 dereferenceable(1) %this) unnamed_addr #0 align 2 {
entry:
  %this.addr = alloca ptr, align 8
  store ptr %this, ptr %this.addr, align 8
  ret void
}

; Function Attrs: mustprogress nounwind uwtable
define internal noundef ptr @"_ZSt9__find_ifIPhN9__gnu_cxx5__ops12_Iter_negateIZN4node9inspector12_GLOBAL__N_111IsIPAddressERKNSt7__cxx1112basic_stringIcSt11char_traitsIcESaIcEEEE3$_0EEET_SH_SH_T0_St26random_access_iterator_tag"(ptr noundef %__first, ptr noundef %__last) #0 {
entry:
  %retval = alloca ptr, align 8
  %__pred = alloca %"struct.__gnu_cxx::__ops::_Iter_negate", align 1
  %__first.addr = alloca ptr, align 8
  %__last.addr = alloca ptr, align 8
  %__trip_count = alloca i64, align 8
  store ptr %__first, ptr %__first.addr, align 8
  store ptr %__last, ptr %__last.addr, align 8
  %0 = load ptr, ptr %__last.addr, align 8
  %1 = load ptr, ptr %__first.addr, align 8
  %sub.ptr.lhs.cast = ptrtoint ptr %0 to i64
  %sub.ptr.rhs.cast = ptrtoint ptr %1 to i64
  %sub.ptr.sub = sub i64 %sub.ptr.lhs.cast, %sub.ptr.rhs.cast
  %shr = ashr i64 %sub.ptr.sub, 2
  store i64 %shr, ptr %__trip_count, align 8
  br label %for.cond

for.cond:                                         ; preds = %for.inc, %entry
  %2 = load i64, ptr %__trip_count, align 8
  %cmp = icmp sgt i64 %2, 0
  br i1 %cmp, label %for.body, label %for.end

for.body:                                         ; preds = %for.cond
  %3 = load ptr, ptr %__first.addr, align 8
  %call = call noundef zeroext i1 @"_ZN9__gnu_cxx5__ops12_Iter_negateIZN4node9inspector12_GLOBAL__N_111IsIPAddressERKNSt7__cxx1112basic_stringIcSt11char_traitsIcESaIcEEEE3$_0EclIPhEEbT_"(ptr noundef nonnull align 1 dereferenceable(1) %__pred, ptr noundef %3)
  br i1 %call, label %if.then, label %if.end

if.then:                                          ; preds = %for.body
  %4 = load ptr, ptr %__first.addr, align 8
  store ptr %4, ptr %retval, align 8
  br label %return

if.end:                                           ; preds = %for.body
  %5 = load ptr, ptr %__first.addr, align 8
  %incdec.ptr = getelementptr inbounds i8, ptr %5, i32 1
  store ptr %incdec.ptr, ptr %__first.addr, align 8
  %6 = load ptr, ptr %__first.addr, align 8
  %call2 = call noundef zeroext i1 @"_ZN9__gnu_cxx5__ops12_Iter_negateIZN4node9inspector12_GLOBAL__N_111IsIPAddressERKNSt7__cxx1112basic_stringIcSt11char_traitsIcESaIcEEEE3$_0EclIPhEEbT_"(ptr noundef nonnull align 1 dereferenceable(1) %__pred, ptr noundef %6)
  br i1 %call2, label %if.then3, label %if.end4

if.then3:                                         ; preds = %if.end
  %7 = load ptr, ptr %__first.addr, align 8
  store ptr %7, ptr %retval, align 8
  br label %return

if.end4:                                          ; preds = %if.end
  %8 = load ptr, ptr %__first.addr, align 8
  %incdec.ptr5 = getelementptr inbounds i8, ptr %8, i32 1
  store ptr %incdec.ptr5, ptr %__first.addr, align 8
  %9 = load ptr, ptr %__first.addr, align 8
  %call6 = call noundef zeroext i1 @"_ZN9__gnu_cxx5__ops12_Iter_negateIZN4node9inspector12_GLOBAL__N_111IsIPAddressERKNSt7__cxx1112basic_stringIcSt11char_traitsIcESaIcEEEE3$_0EclIPhEEbT_"(ptr noundef nonnull align 1 dereferenceable(1) %__pred, ptr noundef %9)
  br i1 %call6, label %if.then7, label %if.end8

if.then7:                                         ; preds = %if.end4
  %10 = load ptr, ptr %__first.addr, align 8
  store ptr %10, ptr %retval, align 8
  br label %return

if.end8:                                          ; preds = %if.end4
  %11 = load ptr, ptr %__first.addr, align 8
  %incdec.ptr9 = getelementptr inbounds i8, ptr %11, i32 1
  store ptr %incdec.ptr9, ptr %__first.addr, align 8
  %12 = load ptr, ptr %__first.addr, align 8
  %call10 = call noundef zeroext i1 @"_ZN9__gnu_cxx5__ops12_Iter_negateIZN4node9inspector12_GLOBAL__N_111IsIPAddressERKNSt7__cxx1112basic_stringIcSt11char_traitsIcESaIcEEEE3$_0EclIPhEEbT_"(ptr noundef nonnull align 1 dereferenceable(1) %__pred, ptr noundef %12)
  br i1 %call10, label %if.then11, label %if.end12

if.then11:                                        ; preds = %if.end8
  %13 = load ptr, ptr %__first.addr, align 8
  store ptr %13, ptr %retval, align 8
  br label %return

if.end12:                                         ; preds = %if.end8
  %14 = load ptr, ptr %__first.addr, align 8
  %incdec.ptr13 = getelementptr inbounds i8, ptr %14, i32 1
  store ptr %incdec.ptr13, ptr %__first.addr, align 8
  br label %for.inc

for.inc:                                          ; preds = %if.end12
  %15 = load i64, ptr %__trip_count, align 8
  %dec = add nsw i64 %15, -1
  store i64 %dec, ptr %__trip_count, align 8
  br label %for.cond, !llvm.loop !18

for.end:                                          ; preds = %for.cond
  %16 = load ptr, ptr %__last.addr, align 8
  %17 = load ptr, ptr %__first.addr, align 8
  %sub.ptr.lhs.cast14 = ptrtoint ptr %16 to i64
  %sub.ptr.rhs.cast15 = ptrtoint ptr %17 to i64
  %sub.ptr.sub16 = sub i64 %sub.ptr.lhs.cast14, %sub.ptr.rhs.cast15
  switch i64 %sub.ptr.sub16, label %sw.default [
    i64 3, label %sw.bb
    i64 2, label %sw.bb21
    i64 1, label %sw.bb26
    i64 0, label %sw.bb31
  ]

sw.bb:                                            ; preds = %for.end
  %18 = load ptr, ptr %__first.addr, align 8
  %call17 = call noundef zeroext i1 @"_ZN9__gnu_cxx5__ops12_Iter_negateIZN4node9inspector12_GLOBAL__N_111IsIPAddressERKNSt7__cxx1112basic_stringIcSt11char_traitsIcESaIcEEEE3$_0EclIPhEEbT_"(ptr noundef nonnull align 1 dereferenceable(1) %__pred, ptr noundef %18)
  br i1 %call17, label %if.then18, label %if.end19

if.then18:                                        ; preds = %sw.bb
  %19 = load ptr, ptr %__first.addr, align 8
  store ptr %19, ptr %retval, align 8
  br label %return

if.end19:                                         ; preds = %sw.bb
  %20 = load ptr, ptr %__first.addr, align 8
  %incdec.ptr20 = getelementptr inbounds i8, ptr %20, i32 1
  store ptr %incdec.ptr20, ptr %__first.addr, align 8
  br label %sw.bb21

sw.bb21:                                          ; preds = %if.end19, %for.end
  %21 = load ptr, ptr %__first.addr, align 8
  %call22 = call noundef zeroext i1 @"_ZN9__gnu_cxx5__ops12_Iter_negateIZN4node9inspector12_GLOBAL__N_111IsIPAddressERKNSt7__cxx1112basic_stringIcSt11char_traitsIcESaIcEEEE3$_0EclIPhEEbT_"(ptr noundef nonnull align 1 dereferenceable(1) %__pred, ptr noundef %21)
  br i1 %call22, label %if.then23, label %if.end24

if.then23:                                        ; preds = %sw.bb21
  %22 = load ptr, ptr %__first.addr, align 8
  store ptr %22, ptr %retval, align 8
  br label %return

if.end24:                                         ; preds = %sw.bb21
  %23 = load ptr, ptr %__first.addr, align 8
  %incdec.ptr25 = getelementptr inbounds i8, ptr %23, i32 1
  store ptr %incdec.ptr25, ptr %__first.addr, align 8
  br label %sw.bb26

sw.bb26:                                          ; preds = %if.end24, %for.end
  %24 = load ptr, ptr %__first.addr, align 8
  %call27 = call noundef zeroext i1 @"_ZN9__gnu_cxx5__ops12_Iter_negateIZN4node9inspector12_GLOBAL__N_111IsIPAddressERKNSt7__cxx1112basic_stringIcSt11char_traitsIcESaIcEEEE3$_0EclIPhEEbT_"(ptr noundef nonnull align 1 dereferenceable(1) %__pred, ptr noundef %24)
  br i1 %call27, label %if.then28, label %if.end29

if.then28:                                        ; preds = %sw.bb26
  %25 = load ptr, ptr %__first.addr, align 8
  store ptr %25, ptr %retval, align 8
  br label %return

if.end29:                                         ; preds = %sw.bb26
  %26 = load ptr, ptr %__first.addr, align 8
  %incdec.ptr30 = getelementptr inbounds i8, ptr %26, i32 1
  store ptr %incdec.ptr30, ptr %__first.addr, align 8
  br label %sw.bb31

sw.bb31:                                          ; preds = %if.end29, %for.end
  br label %sw.default

sw.default:                                       ; preds = %sw.bb31, %for.end
  %27 = load ptr, ptr %__last.addr, align 8
  store ptr %27, ptr %retval, align 8
  br label %return

return:                                           ; preds = %sw.default, %if.then28, %if.then23, %if.then18, %if.then11, %if.then7, %if.then3, %if.then
  %28 = load ptr, ptr %retval, align 8
  ret ptr %28
}

; Function Attrs: mustprogress nounwind uwtable
define linkonce_odr dso_local void @_ZSt19__iterator_categoryIPhENSt15iterator_traitsIT_E17iterator_categoryERKS2_(ptr noundef nonnull align 8 dereferenceable(8) %0) #0 comdat {
entry:
  %.addr = alloca ptr, align 8
  store ptr %0, ptr %.addr, align 8
  ret void
}

; Function Attrs: mustprogress nounwind uwtable
define internal void @"_ZN9__gnu_cxx5__ops8__negateIZN4node9inspector12_GLOBAL__N_111IsIPAddressERKNSt7__cxx1112basic_stringIcSt11char_traitsIcESaIcEEEE3$_0EENS0_12_Iter_negateIT_EENS0_10_Iter_predISF_EE"() #0 {
entry:
  %retval = alloca %"struct.__gnu_cxx::__ops::_Iter_negate", align 1
  call void @"_ZN9__gnu_cxx5__ops12_Iter_negateIZN4node9inspector12_GLOBAL__N_111IsIPAddressERKNSt7__cxx1112basic_stringIcSt11char_traitsIcESaIcEEEE3$_0EC2ESD_"(ptr noundef nonnull align 1 dereferenceable(1) %retval)
  ret void
}

; Function Attrs: mustprogress nounwind uwtable
define internal void @"_ZN9__gnu_cxx5__ops10_Iter_predIZN4node9inspector12_GLOBAL__N_111IsIPAddressERKNSt7__cxx1112basic_stringIcSt11char_traitsIcESaIcEEEE3$_0EC2ESD_"(ptr noundef nonnull align 1 dereferenceable(1) %this) unnamed_addr #0 align 2 {
entry:
  %this.addr = alloca ptr, align 8
  store ptr %this, ptr %this.addr, align 8
  ret void
}

; Function Attrs: mustprogress nounwind uwtable
define internal noundef ptr @"_ZSt13__find_if_notIPhN9__gnu_cxx5__ops10_Iter_predIZN4node9inspector12_GLOBAL__N_111IsIPAddressERKNSt7__cxx1112basic_stringIcSt11char_traitsIcESaIcEEEE3$_0EEET_SH_SH_T0_"(ptr noundef %__first, ptr noundef %__last) #0 {
entry:
  %__pred = alloca %"struct.__gnu_cxx::__ops::_Iter_pred", align 1
  %__first.addr = alloca ptr, align 8
  %__last.addr = alloca ptr, align 8
  %agg.tmp1 = alloca %"struct.__gnu_cxx::__ops::_Iter_pred", align 1
  store ptr %__first, ptr %__first.addr, align 8
  store ptr %__last, ptr %__last.addr, align 8
  %0 = load ptr, ptr %__first.addr, align 8
  %1 = load ptr, ptr %__last.addr, align 8
  call void @llvm.memcpy.p0.p0.i64(ptr align 1 %agg.tmp1, ptr align 1 %__pred, i64 1, i1 false)
  call void @"_ZN9__gnu_cxx5__ops8__negateIZN4node9inspector12_GLOBAL__N_111IsIPAddressERKNSt7__cxx1112basic_stringIcSt11char_traitsIcESaIcEEEE3$_0EENS0_12_Iter_negateIT_EENS0_10_Iter_predISF_EE"()
  call void @_ZSt19__iterator_categoryIPhENSt15iterator_traitsIT_E17iterator_categoryERKS2_(ptr noundef nonnull align 8 dereferenceable(8) %__first.addr)
  %call = call noundef ptr @"_ZSt9__find_ifIPhN9__gnu_cxx5__ops12_Iter_negateIZN4node9inspector12_GLOBAL__N_111IsIPAddressERKNSt7__cxx1112basic_stringIcSt11char_traitsIcESaIcEEEE3$_0EEET_SH_SH_T0_St26random_access_iterator_tag"(ptr noundef %0, ptr noundef %1)
  ret ptr %call
}

; Function Attrs: mustprogress nounwind uwtable
define internal void @"_ZN9__gnu_cxx5__ops11__pred_iterIZN4node9inspector12_GLOBAL__N_111IsIPAddressERKNSt7__cxx1112basic_stringIcSt11char_traitsIcESaIcEEEE3$_0EENS0_10_Iter_predIT_EESF_"() #0 {
entry:
  %retval = alloca %"struct.__gnu_cxx::__ops::_Iter_pred", align 1
  call void @"_ZN9__gnu_cxx5__ops10_Iter_predIZN4node9inspector12_GLOBAL__N_111IsIPAddressERKNSt7__cxx1112basic_stringIcSt11char_traitsIcESaIcEEEE3$_0EC2ESD_"(ptr noundef nonnull align 1 dereferenceable(1) %retval)
  ret void
}

; Function Attrs: mustprogress nounwind uwtable
define internal noundef ptr @"_ZSt11find_if_notIPhZN4node9inspector12_GLOBAL__N_111IsIPAddressERKNSt7__cxx1112basic_stringIcSt11char_traitsIcESaIcEEEE3$_0ET_SD_SD_T0_"(ptr noundef %__first, ptr noundef %__last) #0 {
entry:
  %__first.addr = alloca ptr, align 8
  %__last.addr = alloca ptr, align 8
  store ptr %__first, ptr %__first.addr, align 8
  store ptr %__last, ptr %__last.addr, align 8
  %0 = load ptr, ptr %__first.addr, align 8
  %1 = load ptr, ptr %__last.addr, align 8
  call void @"_ZN9__gnu_cxx5__ops11__pred_iterIZN4node9inspector12_GLOBAL__N_111IsIPAddressERKNSt7__cxx1112basic_stringIcSt11char_traitsIcESaIcEEEE3$_0EENS0_10_Iter_predIT_EESF_"()
  %call = call noundef ptr @"_ZSt13__find_if_notIPhN9__gnu_cxx5__ops10_Iter_predIZN4node9inspector12_GLOBAL__N_111IsIPAddressERKNSt7__cxx1112basic_stringIcSt11char_traitsIcESaIcEEEE3$_0EEET_SH_SH_T0_"(ptr noundef %0, ptr noundef %1)
  ret ptr %call
}

; Function Attrs: mustprogress nounwind uwtable
define internal noundef zeroext i1 @"_ZSt6all_ofIPhZN4node9inspector12_GLOBAL__N_111IsIPAddressERKNSt7__cxx1112basic_stringIcSt11char_traitsIcESaIcEEEE3$_0EbT_SD_T0_"(ptr noundef %__first, ptr noundef %__last) #0 {
entry:
  %__first.addr = alloca ptr, align 8
  %__last.addr = alloca ptr, align 8
  store ptr %__first, ptr %__first.addr, align 8
  store ptr %__last, ptr %__last.addr, align 8
  %0 = load ptr, ptr %__last.addr, align 8
  %1 = load ptr, ptr %__first.addr, align 8
  %2 = load ptr, ptr %__last.addr, align 8
  %call = call noundef ptr @"_ZSt11find_if_notIPhZN4node9inspector12_GLOBAL__N_111IsIPAddressERKNSt7__cxx1112basic_stringIcSt11char_traitsIcESaIcEEEE3$_0ET_SD_SD_T0_"(ptr noundef %1, ptr noundef %2)
  %cmp = icmp eq ptr %0, %call
  ret i1 %cmp
}