; Function Attrs: mustprogress nofree norecurse nosync nounwind willreturn memory(read, inaccessiblemem: none) uwtable
define internal fastcc noundef zeroext i1 @"_ZSt6all_ofIPhZN4node9inspector12_GLOBAL__N_111IsIPAddressERKNSt7__cxx1112basic_stringIcSt11char_traitsIcESaIcEEEE3$_0EbT_SD_T0_"(ptr noundef %__first, ptr noundef %__last) unnamed_addr #4 {
entry:
  %sub.ptr.lhs.cast.i.i.i = ptrtoint ptr %__last to i64
  %sub.ptr.rhs.cast.i.i.i = ptrtoint ptr %__first to i64
  %sub.ptr.sub.i.i.i = sub i64 %sub.ptr.lhs.cast.i.i.i, %sub.ptr.rhs.cast.i.i.i
  %shr.i.i.i = ashr i64 %sub.ptr.sub.i.i.i, 2
  %cmp43.i.i.i = icmp sgt i64 %shr.i.i.i, 0
  br i1 %cmp43.i.i.i, label %for.body.preheader.i.i.i, label %for.end.i.i.i

for.body.preheader.i.i.i:                         ; preds = %entry
  %0 = and i64 %sub.ptr.sub.i.i.i, -4
  %scevgep.i.i.i = getelementptr i8, ptr %__first, i64 %0
  br label %for.body.i.i.i

for.body.i.i.i:                                   ; preds = %if.end12.i.i.i, %for.body.preheader.i.i.i
  %__trip_count.045.i.i.i = phi i64 [ %dec.i.i.i, %if.end12.i.i.i ], [ %shr.i.i.i, %for.body.preheader.i.i.i ]
  %__first.addr.044.i.i.i = phi ptr [ %incdec.ptr13.i.i.i, %if.end12.i.i.i ], [ %__first, %for.body.preheader.i.i.i ]
  %__first.addr.0.val.i.i.i = load i8, ptr %__first.addr.044.i.i.i, align 1
  %cmp.i.i.not.i.i.i = icmp eq i8 %__first.addr.0.val.i.i.i, 0
  br i1 %cmp.i.i.not.i.i.i, label %if.end.i.i.i, label %"_ZSt11find_if_notIPhZN4node9inspector12_GLOBAL__N_111IsIPAddressERKNSt7__cxx1112basic_stringIcSt11char_traitsIcESaIcEEEE3$_0ET_SD_SD_T0_.exit"

if.end.i.i.i:                                     ; preds = %for.body.i.i.i
  %incdec.ptr.i.i.i = getelementptr inbounds i8, ptr %__first.addr.044.i.i.i, i64 1
  %incdec.ptr.val.i.i.i = load i8, ptr %incdec.ptr.i.i.i, align 1
  %cmp.i.i27.not.i.i.i = icmp eq i8 %incdec.ptr.val.i.i.i, 0
  br i1 %cmp.i.i27.not.i.i.i, label %if.end4.i.i.i, label %"_ZSt11find_if_notIPhZN4node9inspector12_GLOBAL__N_111IsIPAddressERKNSt7__cxx1112basic_stringIcSt11char_traitsIcESaIcEEEE3$_0ET_SD_SD_T0_.exit.loopexit.split.loop.exit"

if.end4.i.i.i:                                    ; preds = %if.end.i.i.i
  %incdec.ptr5.i.i.i = getelementptr inbounds i8, ptr %__first.addr.044.i.i.i, i64 2
  %incdec.ptr5.val.i.i.i = load i8, ptr %incdec.ptr5.i.i.i, align 1
  %cmp.i.i28.not.i.i.i = icmp eq i8 %incdec.ptr5.val.i.i.i, 0
  br i1 %cmp.i.i28.not.i.i.i, label %if.end8.i.i.i, label %"_ZSt11find_if_notIPhZN4node9inspector12_GLOBAL__N_111IsIPAddressERKNSt7__cxx1112basic_stringIcSt11char_traitsIcESaIcEEEE3$_0ET_SD_SD_T0_.exit.loopexit.split.loop.exit14"

if.end8.i.i.i:                                    ; preds = %if.end4.i.i.i
  %incdec.ptr9.i.i.i = getelementptr inbounds i8, ptr %__first.addr.044.i.i.i, i64 3
  %incdec.ptr9.val.i.i.i = load i8, ptr %incdec.ptr9.i.i.i, align 1
  %cmp.i.i29.not.i.i.i = icmp eq i8 %incdec.ptr9.val.i.i.i, 0
  br i1 %cmp.i.i29.not.i.i.i, label %if.end12.i.i.i, label %"_ZSt11find_if_notIPhZN4node9inspector12_GLOBAL__N_111IsIPAddressERKNSt7__cxx1112basic_stringIcSt11char_traitsIcESaIcEEEE3$_0ET_SD_SD_T0_.exit.loopexit.split.loop.exit16"

if.end12.i.i.i:                                   ; preds = %if.end8.i.i.i
  %incdec.ptr13.i.i.i = getelementptr inbounds i8, ptr %__first.addr.044.i.i.i, i64 4
  %dec.i.i.i = add nsw i64 %__trip_count.045.i.i.i, -1
  %cmp.i.i.i = icmp sgt i64 %__trip_count.045.i.i.i, 1
  br i1 %cmp.i.i.i, label %for.body.i.i.i, label %for.end.loopexit.i.i.i, !llvm.loop !30

for.end.loopexit.i.i.i:                           ; preds = %if.end12.i.i.i
  %.pre.i.i.i = ptrtoint ptr %scevgep.i.i.i to i64
  br label %for.end.i.i.i

for.end.i.i.i:                                    ; preds = %for.end.loopexit.i.i.i, %entry
  %sub.ptr.rhs.cast15.pre-phi.i.i.i = phi i64 [ %.pre.i.i.i, %for.end.loopexit.i.i.i ], [ %sub.ptr.rhs.cast.i.i.i, %entry ]
  %__first.addr.0.lcssa.i.i.i = phi ptr [ %scevgep.i.i.i, %for.end.loopexit.i.i.i ], [ %__first, %entry ]
  %sub.ptr.sub16.i.i.i = sub i64 %sub.ptr.lhs.cast.i.i.i, %sub.ptr.rhs.cast15.pre-phi.i.i.i
  switch i64 %sub.ptr.sub16.i.i.i, label %sw.default.i.i.i [
    i64 3, label %sw.bb.i.i.i
    i64 2, label %sw.bb21.i.i.i
    i64 1, label %sw.bb26.i.i.i
  ]

sw.bb.i.i.i:                                      ; preds = %for.end.i.i.i
  %__first.addr.0.val26.i.i.i = load i8, ptr %__first.addr.0.lcssa.i.i.i, align 1
  %cmp.i.i30.not.i.i.i = icmp eq i8 %__first.addr.0.val26.i.i.i, 0
  br i1 %cmp.i.i30.not.i.i.i, label %if.end19.i.i.i, label %"_ZSt11find_if_notIPhZN4node9inspector12_GLOBAL__N_111IsIPAddressERKNSt7__cxx1112basic_stringIcSt11char_traitsIcESaIcEEEE3$_0ET_SD_SD_T0_.exit"

if.end19.i.i.i:                                   ; preds = %sw.bb.i.i.i
  %incdec.ptr20.i.i.i = getelementptr inbounds i8, ptr %__first.addr.0.lcssa.i.i.i, i64 1
  br label %sw.bb21.i.i.i

sw.bb21.i.i.i:                                    ; preds = %if.end19.i.i.i, %for.end.i.i.i
  %__first.addr.1.i.i.i = phi ptr [ %__first.addr.0.lcssa.i.i.i, %for.end.i.i.i ], [ %incdec.ptr20.i.i.i, %if.end19.i.i.i ]
  %__first.addr.1.val.i.i.i = load i8, ptr %__first.addr.1.i.i.i, align 1
  %cmp.i.i31.not.i.i.i = icmp eq i8 %__first.addr.1.val.i.i.i, 0
  br i1 %cmp.i.i31.not.i.i.i, label %if.end24.i.i.i, label %"_ZSt11find_if_notIPhZN4node9inspector12_GLOBAL__N_111IsIPAddressERKNSt7__cxx1112basic_stringIcSt11char_traitsIcESaIcEEEE3$_0ET_SD_SD_T0_.exit"

if.end24.i.i.i:                                   ; preds = %sw.bb21.i.i.i
  %incdec.ptr25.i.i.i = getelementptr inbounds i8, ptr %__first.addr.1.i.i.i, i64 1
  br label %sw.bb26.i.i.i

sw.bb26.i.i.i:                                    ; preds = %if.end24.i.i.i, %for.end.i.i.i
  %__first.addr.2.i.i.i = phi ptr [ %__first.addr.0.lcssa.i.i.i, %for.end.i.i.i ], [ %incdec.ptr25.i.i.i, %if.end24.i.i.i ]
  %__first.addr.2.val.i.i.i = load i8, ptr %__first.addr.2.i.i.i, align 1
  %cmp.i.i32.not.i.i.i = icmp eq i8 %__first.addr.2.val.i.i.i, 0
  br i1 %cmp.i.i32.not.i.i.i, label %sw.default.i.i.i, label %"_ZSt11find_if_notIPhZN4node9inspector12_GLOBAL__N_111IsIPAddressERKNSt7__cxx1112basic_stringIcSt11char_traitsIcESaIcEEEE3$_0ET_SD_SD_T0_.exit"

sw.default.i.i.i:                                 ; preds = %sw.bb26.i.i.i, %for.end.i.i.i
  br label %"_ZSt11find_if_notIPhZN4node9inspector12_GLOBAL__N_111IsIPAddressERKNSt7__cxx1112basic_stringIcSt11char_traitsIcESaIcEEEE3$_0ET_SD_SD_T0_.exit"

"_ZSt11find_if_notIPhZN4node9inspector12_GLOBAL__N_111IsIPAddressERKNSt7__cxx1112basic_stringIcSt11char_traitsIcESaIcEEEE3$_0ET_SD_SD_T0_.exit.loopexit.split.loop.exit": ; preds = %if.end.i.i.i
  %incdec.ptr.i.i.i.le = getelementptr inbounds i8, ptr %__first.addr.044.i.i.i, i64 1
  br label %"_ZSt11find_if_notIPhZN4node9inspector12_GLOBAL__N_111IsIPAddressERKNSt7__cxx1112basic_stringIcSt11char_traitsIcESaIcEEEE3$_0ET_SD_SD_T0_.exit"

"_ZSt11find_if_notIPhZN4node9inspector12_GLOBAL__N_111IsIPAddressERKNSt7__cxx1112basic_stringIcSt11char_traitsIcESaIcEEEE3$_0ET_SD_SD_T0_.exit.loopexit.split.loop.exit14": ; preds = %if.end4.i.i.i
  %incdec.ptr5.i.i.i.le = getelementptr inbounds i8, ptr %__first.addr.044.i.i.i, i64 2
  br label %"_ZSt11find_if_notIPhZN4node9inspector12_GLOBAL__N_111IsIPAddressERKNSt7__cxx1112basic_stringIcSt11char_traitsIcESaIcEEEE3$_0ET_SD_SD_T0_.exit"

"_ZSt11find_if_notIPhZN4node9inspector12_GLOBAL__N_111IsIPAddressERKNSt7__cxx1112basic_stringIcSt11char_traitsIcESaIcEEEE3$_0ET_SD_SD_T0_.exit.loopexit.split.loop.exit16": ; preds = %if.end8.i.i.i
  %incdec.ptr9.i.i.i.le = getelementptr inbounds i8, ptr %__first.addr.044.i.i.i, i64 3
  br label %"_ZSt11find_if_notIPhZN4node9inspector12_GLOBAL__N_111IsIPAddressERKNSt7__cxx1112basic_stringIcSt11char_traitsIcESaIcEEEE3$_0ET_SD_SD_T0_.exit"

"_ZSt11find_if_notIPhZN4node9inspector12_GLOBAL__N_111IsIPAddressERKNSt7__cxx1112basic_stringIcSt11char_traitsIcESaIcEEEE3$_0ET_SD_SD_T0_.exit": ; preds = %for.body.i.i.i, %"_ZSt11find_if_notIPhZN4node9inspector12_GLOBAL__N_111IsIPAddressERKNSt7__cxx1112basic_stringIcSt11char_traitsIcESaIcEEEE3$_0ET_SD_SD_T0_.exit.loopexit.split.loop.exit", %"_ZSt11find_if_notIPhZN4node9inspector12_GLOBAL__N_111IsIPAddressERKNSt7__cxx1112basic_stringIcSt11char_traitsIcESaIcEEEE3$_0ET_SD_SD_T0_.exit.loopexit.split.loop.exit14", %"_ZSt11find_if_notIPhZN4node9inspector12_GLOBAL__N_111IsIPAddressERKNSt7__cxx1112basic_stringIcSt11char_traitsIcESaIcEEEE3$_0ET_SD_SD_T0_.exit.loopexit.split.loop.exit16", %sw.bb.i.i.i, %sw.bb21.i.i.i, %sw.bb26.i.i.i, %sw.default.i.i.i
  %retval.0.i.i.i = phi ptr [ %__last, %sw.default.i.i.i ], [ %__first.addr.0.lcssa.i.i.i, %sw.bb.i.i.i ], [ %__first.addr.1.i.i.i, %sw.bb21.i.i.i ], [ %__first.addr.2.i.i.i, %sw.bb26.i.i.i ], [ %incdec.ptr.i.i.i.le, %"_ZSt11find_if_notIPhZN4node9inspector12_GLOBAL__N_111IsIPAddressERKNSt7__cxx1112basic_stringIcSt11char_traitsIcESaIcEEEE3$_0ET_SD_SD_T0_.exit.loopexit.split.loop.exit" ], [ %incdec.ptr5.i.i.i.le, %"_ZSt11find_if_notIPhZN4node9inspector12_GLOBAL__N_111IsIPAddressERKNSt7__cxx1112basic_stringIcSt11char_traitsIcESaIcEEEE3$_0ET_SD_SD_T0_.exit.loopexit.split.loop.exit14" ], [ %incdec.ptr9.i.i.i.le, %"_ZSt11find_if_notIPhZN4node9inspector12_GLOBAL__N_111IsIPAddressERKNSt7__cxx1112basic_stringIcSt11char_traitsIcESaIcEEEE3$_0ET_SD_SD_T0_.exit.loopexit.split.loop.exit16" ], [ %__first.addr.044.i.i.i, %for.body.i.i.i ]
  %cmp = icmp eq ptr %retval.0.i.i.i, %__last
  ret i1 %cmp
}